ARM GAS  C:\Users\Amin\AppData\Local\Temp\cccRe5P8.s 			page 1


   1              		.cpu cortex-m0
   2              		.fpu softvfp
   3              		.eabi_attribute 20, 1
   4              		.eabi_attribute 21, 1
   5              		.eabi_attribute 23, 3
   6              		.eabi_attribute 24, 1
   7              		.eabi_attribute 25, 1
   8              		.eabi_attribute 26, 1
   9              		.eabi_attribute 30, 6
  10              		.eabi_attribute 34, 0
  11              		.eabi_attribute 18, 4
  12              		.code	16
  13              		.file	"bas.c"
  14              		.text
  15              	.Ltext0:
  16              		.cfi_sections	.debug_frame
  17              		.section	.rodata
  18              		.align	2
  19              	.LC0:
  20 0000 42415320 		.ascii	"BAS notification enabled\015\000"
  20      6E6F7469 
  20      66696361 
  20      74696F6E 
  20      20656E61 
  21 001a 0000     		.align	2
  22              	.LC2:
  23 001c 42415320 		.ascii	"BAS notification disabled\015\000"
  23      6E6F7469 
  23      66696361 
  23      74696F6E 
  23      20646973 
  24 0037 00       		.section	.text.BasServiceAppEventHandler,"ax",%progbits
  25              		.align	2
  26              		.global	BasServiceAppEventHandler
  27              		.code	16
  28              		.thumb_func
  29              		.type	BasServiceAppEventHandler, %function
  30              	BasServiceAppEventHandler:
  31              	.LFB35:
  32              		.file 1 ".\\bas.c"
   1:.\bas.c       **** 
   2:.\bas.c       **** 
   3:.\bas.c       **** #include <common.h>
   4:.\bas.c       **** #include <stdio.h>
   5:.\bas.c       **** 
   6:.\bas.c       **** 
   7:.\bas.c       **** 
   8:.\bas.c       **** void BasServiceAppEventHandler(uint32 event, void *eventParam)
   9:.\bas.c       **** {
  33              		.loc 1 9 0
  34              		.cfi_startproc
  35 0000 80B5     		push	{r7, lr}
  36              		.cfi_def_cfa_offset 8
  37              		.cfi_offset 7, -8
  38              		.cfi_offset 14, -4
  39 0002 82B0     		sub	sp, sp, #8
  40              		.cfi_def_cfa_offset 16
ARM GAS  C:\Users\Amin\AppData\Local\Temp\cccRe5P8.s 			page 2


  41 0004 00AF     		add	r7, sp, #0
  42              		.cfi_def_cfa_register 7
  43 0006 7860     		str	r0, [r7, #4]
  44 0008 3960     		str	r1, [r7]
  10:.\bas.c       ****     switch(event)
  45              		.loc 1 10 0
  46 000a 7B68     		ldr	r3, [r7, #4]
  47 000c 8D22     		mov	r2, #141
  48 000e 5200     		lsl	r2, r2, #1
  49 0010 9342     		cmp	r3, r2
  50 0012 04D0     		beq	.L3
  51 0014 1C22     		mov	r2, #28
  52 0016 FF32     		add	r2, r2, #255
  53 0018 9342     		cmp	r3, r2
  54 001a 05D0     		beq	.L4
  11:.\bas.c       ****     {
  12:.\bas.c       ****         /***************************************
  13:.\bas.c       ****         *        BAS Server events
  14:.\bas.c       ****         ***************************************/
  15:.\bas.c       ****         case CYBLE_EVT_BASS_NOTIFICATION_ENABLED:
  16:.\bas.c       ****             printf("BAS notification enabled\r\n");
  17:.\bas.c       ****             break;
  18:.\bas.c       ****         case CYBLE_EVT_BASS_NOTIFICATION_DISABLED:
  19:.\bas.c       ****             printf("BAS notification disabled\r\n");
  20:.\bas.c       ****             break;
  21:.\bas.c       ****         default:
  22:.\bas.c       ****             break;
  55              		.loc 1 22 0
  56 001c 09E0     		b	.L1
  57              	.L3:
  16:.\bas.c       ****             printf("BAS notification enabled\r\n");
  58              		.loc 1 16 0
  59 001e 064B     		ldr	r3, .L6
  60 0020 181C     		mov	r0, r3
  61 0022 FFF7FEFF 		bl	puts
  17:.\bas.c       ****             break;
  62              		.loc 1 17 0
  63 0026 04E0     		b	.L1
  64              	.L4:
  19:.\bas.c       ****             printf("BAS notification disabled\r\n");
  65              		.loc 1 19 0
  66 0028 044B     		ldr	r3, .L6+4
  67 002a 181C     		mov	r0, r3
  68 002c FFF7FEFF 		bl	puts
  20:.\bas.c       ****             break;
  69              		.loc 1 20 0
  70 0030 C046     		mov	r8, r8
  71              	.L1:
  23:.\bas.c       ****     }
  24:.\bas.c       **** }
  72              		.loc 1 24 0
  73 0032 BD46     		mov	sp, r7
  74 0034 02B0     		add	sp, sp, #8
  75              		@ sp needed
  76 0036 80BD     		pop	{r7, pc}
  77              	.L7:
  78              		.align	2
ARM GAS  C:\Users\Amin\AppData\Local\Temp\cccRe5P8.s 			page 3


  79              	.L6:
  80 0038 00000000 		.word	.LC0
  81 003c 1C000000 		.word	.LC2
  82              		.cfi_endproc
  83              	.LFE35:
  84              		.size	BasServiceAppEventHandler, .-BasServiceAppEventHandler
  85              		.text
  86              	.Letext0:
  87              		.file 2 "Generated_Source\\PSoC4/cytypes.h"
  88              		.file 3 "Generated_Source\\PSoC4/BLE_eventHandler.h"